target datalayout = "e-m:e-p270:32:32-p271:32:32-p272:64:64-i64:64-i128:128-f80:128-n8:16:32:64-S128"
target triple = "x86_64-pc-linux-gnu"

%struct._object = type { %union.anon, ptr }
%union.anon = type { i64 }
%struct.tagPyCArgObject = type { %struct._object, ptr, i8, %union.anon.0, ptr, i64 }
%union.anon.0 = type { x86_fp80 }

; Function Attrs: inlinehint nounwind uwtable
define internal ptr @_Py_TYPE(ptr noundef %0) #5 {
  %2 = alloca ptr, align 8
  store ptr %0, ptr %2, align 8, !tbaa !9
  %3 = load ptr, ptr %2, align 8, !tbaa !9
  %4 = getelementptr inbounds nuw %struct._object, ptr %3, i32 0, i32 1
  %5 = load ptr, ptr %4, align 8, !tbaa !29
  ret ptr %5
}

; Function Attrs: nounwind uwtable
define internal i32 @PyCArg_traverse(ptr noundef %0, ptr noundef %1, ptr noundef %2) #0 {
  %4 = alloca i32, align 4
  %5 = alloca ptr, align 8
  %6 = alloca ptr, align 8
  %7 = alloca ptr, align 8
  %8 = alloca ptr, align 8
  %9 = alloca i32, align 4
  %10 = alloca i32, align 4
  %11 = alloca i32, align 4
  store ptr %0, ptr %5, align 8, !tbaa !9
  store ptr %1, ptr %6, align 8, !tbaa !3
  store ptr %2, ptr %7, align 8, !tbaa !3
  call void @llvm.lifetime.start.p0(i64 8, ptr %8) #10
  %12 = load ptr, ptr %5, align 8, !tbaa !9
  store ptr %12, ptr %8, align 8, !tbaa !18
  br label %13

13:                                               ; preds = %3
  %14 = load ptr, ptr %8, align 8, !tbaa !18
  %15 = call ptr @_Py_TYPE(ptr noundef %14)
  %16 = icmp ne ptr %15, null
  br i1 %16, label %17, label %31

17:                                               ; preds = %13
  call void @llvm.lifetime.start.p0(i64 4, ptr %9) #10
  %18 = load ptr, ptr %6, align 8, !tbaa !3
  %19 = load ptr, ptr %8, align 8, !tbaa !18
  %20 = call ptr @_Py_TYPE(ptr noundef %19)
  %21 = load ptr, ptr %7, align 8, !tbaa !3
  %22 = call i32 %18(ptr noundef %20, ptr noundef %21)
  store i32 %22, ptr %9, align 4, !tbaa !30
  %23 = load i32, ptr %9, align 4, !tbaa !30
  %24 = icmp ne i32 %23, 0
  br i1 %24, label %25, label %27

25:                                               ; preds = %17
  %26 = load i32, ptr %9, align 4, !tbaa !30
  store i32 %26, ptr %4, align 4
  store i32 1, ptr %10, align 4
  br label %28

27:                                               ; preds = %17
  store i32 0, ptr %10, align 4
  br label %28

28:                                               ; preds = %27, %25
  call void @llvm.lifetime.end.p0(i64 4, ptr %9) #10
  %29 = load i32, ptr %10, align 4
  switch i32 %29, label %57 [
    i32 0, label %30
  ]

30:                                               ; preds = %28
  br label %31

31:                                               ; preds = %30, %13
  br label %32

32:                                               ; preds = %31
  br label %33

33:                                               ; preds = %32
  br label %34

34:                                               ; preds = %33
  %35 = load ptr, ptr %8, align 8, !tbaa !18
  %36 = getelementptr inbounds nuw %struct.tagPyCArgObject, ptr %35, i32 0, i32 4
  %37 = load ptr, ptr %36, align 16, !tbaa !26
  %38 = icmp ne ptr %37, null
  br i1 %38, label %39, label %54

39:                                               ; preds = %34
  call void @llvm.lifetime.start.p0(i64 4, ptr %11) #10
  %40 = load ptr, ptr %6, align 8, !tbaa !3
  %41 = load ptr, ptr %8, align 8, !tbaa !18
  %42 = getelementptr inbounds nuw %struct.tagPyCArgObject, ptr %41, i32 0, i32 4
  %43 = load ptr, ptr %42, align 16, !tbaa !26
  %44 = load ptr, ptr %7, align 8, !tbaa !3
  %45 = call i32 %40(ptr noundef %43, ptr noundef %44)
  store i32 %45, ptr %11, align 4, !tbaa !30
  %46 = load i32, ptr %11, align 4, !tbaa !30
  %47 = icmp ne i32 %46, 0
  br i1 %47, label %48, label %50

48:                                               ; preds = %39
  %49 = load i32, ptr %11, align 4, !tbaa !30
  store i32 %49, ptr %4, align 4
  store i32 1, ptr %10, align 4
  br label %51

50:                                               ; preds = %39
  store i32 0, ptr %10, align 4
  br label %51

51:                                               ; preds = %50, %48
  call void @llvm.lifetime.end.p0(i64 4, ptr %11) #10
  %52 = load i32, ptr %10, align 4
  switch i32 %52, label %57 [
    i32 0, label %53
  ]

53:                                               ; preds = %51
  br label %54

54:                                               ; preds = %53, %34
  br label %55

55:                                               ; preds = %54
  br label %56

56:                                               ; preds = %55
  store i32 0, ptr %4, align 4
  store i32 1, ptr %10, align 4
  br label %57

57:                                               ; preds = %56, %51, %28
  call void @llvm.lifetime.end.p0(i64 8, ptr %8) #10
  %58 = load i32, ptr %4, align 4
  ret i32 %58
}